target datalayout = "e-m:e-p270:32:32-p271:32:32-p272:64:64-i64:64-i128:128-f80:128-n8:16:32:64-S128"
target triple = "x86_64-pc-linux-gnu"

%"class.icu_77::UnicodeString" = type { %"class.icu_77::Replaceable", %"union.icu_77::UnicodeString::StackBufferOrFields" }
%"class.icu_77::Replaceable" = type { %"class.icu_77::UObject" }
%"class.icu_77::UObject" = type { ptr }
%"union.icu_77::UnicodeString::StackBufferOrFields" = type { %struct.anon.0, [32 x i8] }
%struct.anon.0 = type { i16, i32, i32, ptr }
%"struct.icu_77::CollationData" = type <{ ptr, ptr, ptr, ptr, ptr, ptr, ptr, i32, i32, i32, i32, ptr, ptr, ptr, i32, i32, ptr, ptr, i32, [4 x i8], ptr, i32, [4 x i8] }>
%"class.icu_77::CollationDataBuilder" = type { %"class.icu_77::UObject", ptr, ptr, ptr, ptr, %"class.icu_77::UVector32", %"class.icu_77::UVector64", %"class.icu_77::UVector", %"class.icu_77::UnicodeSet", %"class.icu_77::UnicodeString", i32, [4 x i8], %"class.icu_77::UnicodeSet", i8, i8, i8, ptr, ptr }
%"class.icu_77::UVector32" = type { %"class.icu_77::UObject", i32, i32, i32, ptr }
%"class.icu_77::UVector64" = type { %"class.icu_77::UObject", i32, i32, i32, ptr }
%"class.icu_77::UVector" = type { %"class.icu_77::UObject", i32, i32, ptr, ptr, ptr }
%"class.icu_77::UnicodeSet" = type <{ %"class.icu_77::UnicodeFilter", ptr, i32, i32, i8, [7 x i8], ptr, ptr, i32, [4 x i8], ptr, i32, [4 x i8], ptr, ptr, [25 x i32], [4 x i8] }>
%"class.icu_77::UnicodeFilter" = type { %"class.icu_77::UnicodeFunctor", %"class.icu_77::UnicodeMatcher" }
%"class.icu_77::UnicodeFunctor" = type { %"class.icu_77::UObject" }
%"class.icu_77::UnicodeMatcher" = type { ptr }

; Function Attrs: mustprogress nounwind uwtable
define linkonce_odr noundef i32 @_ZN6icu_779Collation23makeCE32FromTagAndIndexEii(i32 noundef %0, i32 noundef %1) #1 comdat align 2 {
  %3 = alloca i32, align 4
  %4 = alloca i32, align 4
  store i32 %0, ptr %3, align 4, !tbaa !57
  store i32 %1, ptr %4, align 4, !tbaa !57
  %5 = load i32, ptr %4, align 4, !tbaa !57
  %6 = shl i32 %5, 13
  %7 = or i32 %6, 192
  %8 = load i32, ptr %3, align 4, !tbaa !57
  %9 = or i32 %7, %8
  ret i32 %9
}

; Function Attrs: inlinehint mustprogress nounwind uwtable
define internal noundef signext i8 @_ZL9U_FAILURE10UErrorCode(i32 noundef %0) #3 {
  %2 = alloca i32, align 4
  store i32 %0, ptr %2, align 4, !tbaa !97
  %3 = load i32, ptr %2, align 4, !tbaa !97
  %4 = icmp sgt i32 %3, 0
  %5 = zext i1 %4 to i8
  ret i8 %5
}

; Function Attrs: mustprogress uwtable
define void @_ZN6icu_7720CollationDataBuilder16initForTailoringEPKNS_13CollationDataER10UErrorCode(ptr noundef nonnull align 8 dereferenceable(640) %0, ptr noundef %1, ptr noundef nonnull align 4 dereferenceable(4) %2) #4 align 2 {
  %4 = alloca ptr, align 8
  %5 = alloca ptr, align 8
  %6 = alloca ptr, align 8
  %7 = alloca i32, align 4
  %8 = alloca i32, align 4
  store ptr %0, ptr %4, align 8, !tbaa !13
  store ptr %1, ptr %5, align 8, !tbaa !63
  store ptr %2, ptr %6, align 8, !tbaa !8
  %9 = load ptr, ptr %4, align 8
  %10 = load ptr, ptr %6, align 8, !tbaa !8
  %11 = load i32, ptr %10, align 4, !tbaa !97
  %12 = call noundef signext i8 @_ZL9U_FAILURE10UErrorCode(i32 noundef %11)
  %13 = icmp ne i8 %12, 0
  br i1 %13, label %14, label %15

14:                                               ; preds = %3
  br label %69

15:                                               ; preds = %3
  %16 = getelementptr inbounds nuw %"class.icu_77::CollationDataBuilder", ptr %9, i32 0, i32 4
  %17 = load ptr, ptr %16, align 8, !tbaa !99
  %18 = icmp ne ptr %17, null
  br i1 %18, label %19, label %21

19:                                               ; preds = %15
  %20 = load ptr, ptr %6, align 8, !tbaa !8
  store i32 27, ptr %20, align 4, !tbaa !97
  br label %69

21:                                               ; preds = %15
  %22 = load ptr, ptr %5, align 8, !tbaa !63
  %23 = icmp eq ptr %22, null
  br i1 %23, label %24, label %26

24:                                               ; preds = %21
  %25 = load ptr, ptr %6, align 8, !tbaa !8
  store i32 1, ptr %25, align 4, !tbaa !97
  br label %69

26:                                               ; preds = %21
  %27 = load ptr, ptr %5, align 8, !tbaa !63
  %28 = getelementptr inbounds nuw %"class.icu_77::CollationDataBuilder", ptr %9, i32 0, i32 2
  store ptr %27, ptr %28, align 8, !tbaa !55
  %29 = getelementptr inbounds nuw %"class.icu_77::CollationDataBuilder", ptr %9, i32 0, i32 14
  %30 = load i8, ptr %29, align 1, !tbaa !128
  %31 = icmp ne i8 %30, 0
  %32 = select i1 %31, i32 192, i32 -195323
  %33 = load ptr, ptr %6, align 8, !tbaa !8
  %34 = call ptr @utrie2_open_77(i32 noundef 192, i32 noundef %32, ptr noundef %33)
  %35 = getelementptr inbounds nuw %"class.icu_77::CollationDataBuilder", ptr %9, i32 0, i32 4
  store ptr %34, ptr %35, align 8, !tbaa !99
  %36 = getelementptr inbounds nuw %"class.icu_77::CollationDataBuilder", ptr %9, i32 0, i32 14
  %37 = load i8, ptr %36, align 1, !tbaa !128
  %38 = icmp ne i8 %37, 0
  br i1 %38, label %63, label %39

39:                                               ; preds = %26
  call void @llvm.lifetime.start.p0(i64 4, ptr %7) #11
  store i32 192, ptr %7, align 4, !tbaa !57
  br label %40

40:                                               ; preds = %49, %39
  %41 = load i32, ptr %7, align 4, !tbaa !57
  %42 = icmp sle i32 %41, 255
  br i1 %42, label %44, label %43

43:                                               ; preds = %40
  call void @llvm.lifetime.end.p0(i64 4, ptr %7) #11
  br label %52

44:                                               ; preds = %40
  %45 = getelementptr inbounds nuw %"class.icu_77::CollationDataBuilder", ptr %9, i32 0, i32 4
  %46 = load ptr, ptr %45, align 8, !tbaa !99
  %47 = load i32, ptr %7, align 4, !tbaa !57
  %48 = load ptr, ptr %6, align 8, !tbaa !8
  call void @utrie2_set32_77(ptr noundef %46, i32 noundef %47, i32 noundef 192, ptr noundef %48)
  br label %49

49:                                               ; preds = %44
  %50 = load i32, ptr %7, align 4, !tbaa !57
  %51 = add nsw i32 %50, 1
  store i32 %51, ptr %7, align 4, !tbaa !57
  br label %40, !llvm.loop !140

52:                                               ; preds = %43
  call void @llvm.lifetime.start.p0(i64 4, ptr %8) #11
  %53 = call noundef i32 @_ZN6icu_779Collation23makeCE32FromTagAndIndexEii(i32 noundef 12, i32 noundef 0)
  store i32 %53, ptr %8, align 4, !tbaa !57
  %54 = getelementptr inbounds nuw %"class.icu_77::CollationDataBuilder", ptr %9, i32 0, i32 4
  %55 = load ptr, ptr %54, align 8, !tbaa !99
  %56 = load i32, ptr %8, align 4, !tbaa !57
  %57 = load ptr, ptr %6, align 8, !tbaa !8
  call void @utrie2_setRange32_77(ptr noundef %55, i32 noundef 44032, i32 noundef 55203, i32 noundef %56, i8 noundef signext 1, ptr noundef %57)
  %58 = getelementptr inbounds nuw %"class.icu_77::CollationDataBuilder", ptr %9, i32 0, i32 12
  %59 = load ptr, ptr %5, align 8, !tbaa !63
  %60 = getelementptr inbounds nuw %"struct.icu_77::CollationData", ptr %59, i32 0, i32 12
  %61 = load ptr, ptr %60, align 8, !tbaa !83
  %62 = call noundef nonnull align 8 dereferenceable(200) ptr @_ZN6icu_7710UnicodeSet6addAllERKS0_(ptr noundef nonnull align 8 dereferenceable(200) %58, ptr noundef nonnull align 8 dereferenceable(200) %61)
  call void @llvm.lifetime.end.p0(i64 4, ptr %8) #11
  br label %63

63:                                               ; preds = %52, %26
  %64 = load ptr, ptr %6, align 8, !tbaa !8
  %65 = load i32, ptr %64, align 4, !tbaa !97
  %66 = call noundef signext i8 @_ZL9U_FAILURE10UErrorCode(i32 noundef %65)
  %67 = icmp ne i8 %66, 0
  br i1 %67, label %68, label %69

68:                                               ; preds = %63
  br label %69

69:                                               ; preds = %14, %19, %24, %68, %63
  ret void
}