; Function Attrs: mustprogress uwtable
define void @_ZN6icu_7720CollationDataBuilder16initForTailoringEPKNS_13CollationDataER10UErrorCode(ptr noundef nonnull align 8 dereferenceable(640) %0, ptr noundef %1, ptr noundef nonnull align 4 dereferenceable(4) %2) local_unnamed_addr #6 align 2 {
  %4 = load i32, ptr %2, align 4, !tbaa !76
  %5 = icmp slt i32 %4, 1
  br i1 %5, label %6, label %28

6:                                                ; preds = %3
  %7 = getelementptr inbounds nuw i8, ptr %0, i64 32
  %8 = load ptr, ptr %7, align 8, !tbaa !80
  %.not15 = icmp eq ptr %8, null
  br i1 %.not15, label %10, label %9

9:                                                ; preds = %6
  store i32 27, ptr %2, align 4, !tbaa !76
  br label %28

10:                                               ; preds = %6
  %11 = icmp eq ptr %1, null
  br i1 %11, label %12, label %13

12:                                               ; preds = %10
  store i32 1, ptr %2, align 4, !tbaa !76
  br label %28

13:                                               ; preds = %10
  %14 = getelementptr inbounds nuw i8, ptr %0, i64 16
  store ptr %1, ptr %14, align 8, !tbaa !63
  %15 = getelementptr inbounds nuw i8, ptr %0, i64 617
  %16 = load i8, ptr %15, align 1, !tbaa !116
  %.not16 = icmp eq i8 %16, 0
  %17 = select i1 %.not16, i32 -195323, i32 192
  %18 = tail call ptr @utrie2_open_77(i32 noundef 192, i32 noundef %17, ptr noundef nonnull %2)
  store ptr %18, ptr %7, align 8, !tbaa !80
  %19 = load i8, ptr %15, align 1, !tbaa !116
  %.not17 = icmp eq i8 %19, 0
  br i1 %.not17, label %.preheader, label %28

20:                                               ; preds = %.preheader
  %21 = load ptr, ptr %7, align 8, !tbaa !80
  tail call void @utrie2_setRange32_77(ptr noundef %21, i32 noundef 44032, i32 noundef 55203, i32 noundef 204, i8 noundef signext 1, ptr noundef nonnull %2)
  %22 = getelementptr inbounds nuw i8, ptr %0, i64 416
  %23 = getelementptr inbounds nuw i8, ptr %1, i64 80
  %24 = load ptr, ptr %23, align 8, !tbaa !123
  %25 = tail call noundef nonnull align 8 dereferenceable(200) ptr @_ZN6icu_7710UnicodeSet6addAllERKS0_(ptr noundef nonnull align 8 dereferenceable(200) %22, ptr noundef nonnull align 8 dereferenceable(200) %24)
  br label %28

.preheader:                                       ; preds = %13, %.preheader
  %.018 = phi i32 [ %27, %.preheader ], [ 192, %13 ]
  %26 = load ptr, ptr %7, align 8, !tbaa !80
  tail call void @utrie2_set32_77(ptr noundef %26, i32 noundef %.018, i32 noundef 192, ptr noundef nonnull %2)
  %27 = add nuw nsw i32 %.018, 1
  %exitcond.not = icmp eq i32 %27, 256
  br i1 %exitcond.not, label %20, label %.preheader, !llvm.loop !124

28:                                               ; preds = %13, %20, %3, %12, %9
  ret void
}